; Function Attrs: mustprogress nofree norecurse nosync nounwind willreturn memory(argmem: read) uwtable
define internal noundef float @_ZNK5faiss12_GLOBAL__N_110IVFScannerINS_16HammingComputer4EE16distance_to_codeEPKh(ptr nocapture noundef nonnull readonly align 8 dereferenceable(140) %0, ptr nocapture noundef readonly %1) unnamed_addr #16 align 2 {
  %3 = getelementptr inbounds i8, ptr %0, i64 136
  %4 = load i32, ptr %1, align 4
  %5 = load i32, ptr %3, align 8
  %6 = xor i32 %5, %4
  %7 = tail call noundef i32 @llvm.ctpop.i32(i32 %6), !range !25
  %8 = sitofp i32 %7 to float
  ret float %8
}